target datalayout = "e-m:e-p270:32:32-p271:32:32-p272:64:64-i64:64-i128:128-f80:128-n8:16:32:64-S128"
target triple = "x86_64-pc-linux-gnu"

%struct.Gia_Obj_t_ = type <{ i64, i32 }>
%struct.Vec_Int_t_ = type { i32, i32, ptr }
%struct.Gia_Man_t_ = type { ptr, ptr, i32, i32, i32, i32, ptr, ptr, i32, i32, i32, ptr, ptr, %struct.Vec_Int_t_, %struct.Vec_Int_t_, i32, i32, i32, %struct.Vec_Int_t_, ptr, ptr, ptr, i32, i32, i32, i32, ptr, ptr, ptr, ptr, ptr, i32, i32, ptr, i32, ptr, ptr, ptr, ptr, ptr, ptr, ptr, ptr, ptr, ptr, ptr, ptr, ptr, ptr, ptr, ptr, ptr, ptr, %struct.Vec_Int_t_, %struct.Vec_Int_t_, ptr, ptr, ptr, ptr, ptr, ptr, ptr, ptr, ptr, ptr, ptr, ptr, ptr, ptr, ptr, ptr, ptr, ptr, ptr, ptr, ptr, i32, float, float, ptr, ptr, i32, ptr, ptr, ptr, ptr, ptr, ptr, ptr, ptr, ptr, ptr, ptr, ptr, ptr, ptr, ptr, i64, i64, ptr, ptr, i32, i32, i32, i32, i32, i32, i32, i32, i32, i32, i32, i32, ptr, ptr, ptr, ptr, ptr, ptr, ptr, ptr, i32, i32, i32, ptr, i32, i32, ptr, ptr, ptr, ptr, ptr, ptr, i32, i32, ptr, %struct.Vec_Int_t_, %struct.Vec_Int_t_, %struct.Vec_Int_t_, ptr, ptr, ptr }

; Function Attrs: nounwind uwtable
define internal i32 @Gia_ObjFaninC1(ptr noundef %0) #0 {
  %2 = alloca ptr, align 8
  store ptr %0, ptr %2, align 8
  %3 = load ptr, ptr %2, align 8
  %4 = load i64, ptr %3, align 4
  %5 = lshr i64 %4, 61
  %6 = and i64 %5, 1
  %7 = trunc i64 %6 to i32
  ret i32 %7
}

; Function Attrs: nounwind uwtable
define internal i32 @Gia_ObjFaninC0(ptr noundef %0) #0 {
  %2 = alloca ptr, align 8
  store ptr %0, ptr %2, align 8
  %3 = load ptr, ptr %2, align 8
  %4 = load i64, ptr %3, align 4
  %5 = lshr i64 %4, 29
  %6 = and i64 %5, 1
  %7 = trunc i64 %6 to i32
  ret i32 %7
}

; Function Attrs: nounwind uwtable
define internal i32 @Gia_IsComplement(ptr noundef %0) #0 {
  %2 = alloca ptr, align 8
  store ptr %0, ptr %2, align 8
  %3 = load ptr, ptr %2, align 8
  %4 = ptrtoint ptr %3 to i64
  %5 = and i64 %4, 1
  %6 = trunc i64 %5 to i32
  ret i32 %6
}

; Function Attrs: nounwind uwtable
define internal ptr @Gia_Regular(ptr noundef %0) #0 {
  %2 = alloca ptr, align 8
  store ptr %0, ptr %2, align 8
  %3 = load ptr, ptr %2, align 8
  %4 = ptrtoint ptr %3 to i64
  %5 = and i64 %4, -2
  %6 = inttoptr i64 %5 to ptr
  ret ptr %6
}

; Function Attrs: nounwind uwtable
define internal i32 @Gia_ObjFanin1Copy(ptr noundef %0) #0 {
  %2 = alloca ptr, align 8
  store ptr %0, ptr %2, align 8
  %3 = load ptr, ptr %2, align 8
  %4 = call ptr @Gia_ObjFanin1(ptr noundef %3)
  %5 = getelementptr inbounds %struct.Gia_Obj_t_, ptr %4, i32 0, i32 1
  %6 = load i32, ptr %5, align 4
  %7 = load ptr, ptr %2, align 8
  %8 = call i32 @Gia_ObjFaninC1(ptr noundef %7)
  %9 = call i32 @Abc_LitNotCond(i32 noundef %6, i32 noundef %8)
  ret i32 %9
}

; Function Attrs: nounwind uwtable
define internal i32 @Vec_IntSize(ptr noundef %0) #0 {
  %2 = alloca ptr, align 8
  store ptr %0, ptr %2, align 8
  %3 = load ptr, ptr %2, align 8
  %4 = getelementptr inbounds %struct.Vec_Int_t_, ptr %3, i32 0, i32 1
  %5 = load i32, ptr %4, align 4
  ret i32 %5
}

; Function Attrs: nounwind uwtable
define internal ptr @Gia_ObjFanin1(ptr noundef %0) #0 {
  %2 = alloca ptr, align 8
  store ptr %0, ptr %2, align 8
  %3 = load ptr, ptr %2, align 8
  %4 = load ptr, ptr %2, align 8
  %5 = load i64, ptr %4, align 4
  %6 = lshr i64 %5, 32
  %7 = and i64 %6, 536870911
  %8 = trunc i64 %7 to i32
  %9 = sext i32 %8 to i64
  %10 = sub i64 0, %9
  %11 = getelementptr inbounds %struct.Gia_Obj_t_, ptr %3, i64 %10
  ret ptr %11
}

; Function Attrs: nounwind uwtable
define internal i32 @Gia_ObjFanin0Copy(ptr noundef %0) #0 {
  %2 = alloca ptr, align 8
  store ptr %0, ptr %2, align 8
  %3 = load ptr, ptr %2, align 8
  %4 = call ptr @Gia_ObjFanin0(ptr noundef %3)
  %5 = getelementptr inbounds %struct.Gia_Obj_t_, ptr %4, i32 0, i32 1
  %6 = load i32, ptr %5, align 4
  %7 = load ptr, ptr %2, align 8
  %8 = call i32 @Gia_ObjFaninC0(ptr noundef %7)
  %9 = call i32 @Abc_LitNotCond(i32 noundef %6, i32 noundef %8)
  ret i32 %9
}

; Function Attrs: nounwind uwtable
define internal i32 @Gia_ObjIsCo(ptr noundef %0) #0 {
  %2 = alloca ptr, align 8
  store ptr %0, ptr %2, align 8
  %3 = load ptr, ptr %2, align 8
  %4 = load i64, ptr %3, align 4
  %5 = lshr i64 %4, 31
  %6 = and i64 %5, 1
  %7 = trunc i64 %6 to i32
  %8 = icmp ne i32 %7, 0
  br i1 %8, label %9, label %15

9:                                                ; preds = %1
  %10 = load ptr, ptr %2, align 8
  %11 = load i64, ptr %10, align 4
  %12 = and i64 %11, 536870911
  %13 = trunc i64 %12 to i32
  %14 = icmp ne i32 %13, 536870911
  br label %15

15:                                               ; preds = %9, %1
  %16 = phi i1 [ false, %1 ], [ %14, %9 ]
  %17 = zext i1 %16 to i32
  ret i32 %17
}

; Function Attrs: nounwind uwtable
define internal ptr @Gia_ObjFanin0(ptr noundef %0) #0 {
  %2 = alloca ptr, align 8
  store ptr %0, ptr %2, align 8
  %3 = load ptr, ptr %2, align 8
  %4 = load ptr, ptr %2, align 8
  %5 = load i64, ptr %4, align 4
  %6 = and i64 %5, 536870911
  %7 = trunc i64 %6 to i32
  %8 = sext i32 %7 to i64
  %9 = sub i64 0, %8
  %10 = getelementptr inbounds %struct.Gia_Obj_t_, ptr %3, i64 %9
  ret ptr %10
}

; Function Attrs: nounwind uwtable
define internal i32 @Gia_ObjIsCi(ptr noundef %0) #0 {
  %2 = alloca ptr, align 8
  store ptr %0, ptr %2, align 8
  %3 = load ptr, ptr %2, align 8
  %4 = load i64, ptr %3, align 4
  %5 = lshr i64 %4, 31
  %6 = and i64 %5, 1
  %7 = trunc i64 %6 to i32
  %8 = icmp ne i32 %7, 0
  br i1 %8, label %9, label %15

9:                                                ; preds = %1
  %10 = load ptr, ptr %2, align 8
  %11 = load i64, ptr %10, align 4
  %12 = and i64 %11, 536870911
  %13 = trunc i64 %12 to i32
  %14 = icmp eq i32 %13, 536870911
  br label %15

15:                                               ; preds = %9, %1
  %16 = phi i1 [ false, %1 ], [ %14, %9 ]
  %17 = zext i1 %16 to i32
  ret i32 %17
}

; Function Attrs: nounwind uwtable
define internal i32 @Abc_LitNotCond(i32 noundef %0, i32 noundef %1) #0 {
  %3 = alloca i32, align 4
  %4 = alloca i32, align 4
  store i32 %0, ptr %3, align 4
  store i32 %1, ptr %4, align 4
  %5 = load i32, ptr %3, align 4
  %6 = load i32, ptr %4, align 4
  %7 = icmp sgt i32 %6, 0
  %8 = zext i1 %7 to i32
  %9 = xor i32 %5, %8
  ret i32 %9
}

; Function Attrs: nounwind uwtable
define internal i32 @Gia_ObjPhaseReal(ptr noundef %0) #0 {
  %2 = alloca ptr, align 8
  store ptr %0, ptr %2, align 8
  %3 = load ptr, ptr %2, align 8
  %4 = call ptr @Gia_Regular(ptr noundef %3)
  %5 = load i64, ptr %4, align 4
  %6 = lshr i64 %5, 63
  %7 = trunc i64 %6 to i32
  %8 = load ptr, ptr %2, align 8
  %9 = call i32 @Gia_IsComplement(ptr noundef %8)
  %10 = xor i32 %7, %9
  ret i32 %10
}

; Function Attrs: nounwind uwtable
define internal ptr @Gia_ManObj(ptr noundef %0, i32 noundef %1) #0 {
  %3 = alloca ptr, align 8
  %4 = alloca i32, align 4
  store ptr %0, ptr %3, align 8
  store i32 %1, ptr %4, align 4
  %5 = load ptr, ptr %3, align 8
  %6 = getelementptr inbounds %struct.Gia_Man_t_, ptr %5, i32 0, i32 6
  %7 = load ptr, ptr %6, align 8
  %8 = load i32, ptr %4, align 4
  %9 = sext i32 %8 to i64
  %10 = getelementptr inbounds %struct.Gia_Obj_t_, ptr %7, i64 %9
  ret ptr %10
}

; Function Attrs: nounwind uwtable
define internal i32 @Gia_ObjId(ptr noundef %0, ptr noundef %1) #0 {
  %3 = alloca ptr, align 8
  %4 = alloca ptr, align 8
  store ptr %0, ptr %3, align 8
  store ptr %1, ptr %4, align 8
  %5 = load ptr, ptr %4, align 8
  %6 = load ptr, ptr %3, align 8
  %7 = getelementptr inbounds %struct.Gia_Man_t_, ptr %6, i32 0, i32 6
  %8 = load ptr, ptr %7, align 8
  %9 = ptrtoint ptr %5 to i64
  %10 = ptrtoint ptr %8 to i64
  %11 = sub i64 %9, %10
  %12 = sdiv exact i64 %11, 12
  %13 = trunc i64 %12 to i32
  ret i32 %13
}

; Function Attrs: nounwind uwtable
define i32 @Gia_ManDupDfs2_rec(ptr noundef %0, ptr noundef %1, ptr noundef %2) #0 {
  %4 = alloca i32, align 4
  %5 = alloca ptr, align 8
  %6 = alloca ptr, align 8
  %7 = alloca ptr, align 8
  %8 = alloca ptr, align 8
  store ptr %0, ptr %5, align 8
  store ptr %1, ptr %6, align 8
  store ptr %2, ptr %7, align 8
  %9 = load ptr, ptr %7, align 8
  %10 = getelementptr inbounds %struct.Gia_Obj_t_, ptr %9, i32 0, i32 1
  %11 = load i32, ptr %10, align 4
  %12 = xor i32 %11, -1
  %13 = icmp ne i32 %12, 0
  br i1 %13, label %14, label %18

14:                                               ; preds = %3
  %15 = load ptr, ptr %7, align 8
  %16 = getelementptr inbounds %struct.Gia_Obj_t_, ptr %15, i32 0, i32 1
  %17 = load i32, ptr %16, align 4
  store i32 %17, ptr %4, align 4
  br label %117

18:                                               ; preds = %3
  %19 = load ptr, ptr %6, align 8
  %20 = getelementptr inbounds %struct.Gia_Man_t_, ptr %19, i32 0, i32 26
  %21 = load ptr, ptr %20, align 8
  %22 = icmp ne ptr %21, null
  br i1 %22, label %23, label %64

23:                                               ; preds = %18
  %24 = load ptr, ptr %6, align 8
  %25 = getelementptr inbounds %struct.Gia_Man_t_, ptr %24, i32 0, i32 26
  %26 = load ptr, ptr %25, align 8
  %27 = load ptr, ptr %6, align 8
  %28 = load ptr, ptr %7, align 8
  %29 = call i32 @Gia_ObjId(ptr noundef %27, ptr noundef %28)
  %30 = sext i32 %29 to i64
  %31 = getelementptr inbounds i32, ptr %26, i64 %30
  %32 = load i32, ptr %31, align 4
  %33 = xor i32 %32, -1
  %34 = icmp ne i32 %33, 0
  br i1 %34, label %35, label %64

35:                                               ; preds = %23
  %36 = load ptr, ptr %6, align 8
  %37 = load ptr, ptr %6, align 8
  %38 = getelementptr inbounds %struct.Gia_Man_t_, ptr %37, i32 0, i32 26
  %39 = load ptr, ptr %38, align 8
  %40 = load ptr, ptr %6, align 8
  %41 = load ptr, ptr %7, align 8
  %42 = call i32 @Gia_ObjId(ptr noundef %40, ptr noundef %41)
  %43 = sext i32 %42 to i64
  %44 = getelementptr inbounds i32, ptr %39, i64 %43
  %45 = load i32, ptr %44, align 4
  %46 = call ptr @Gia_ManObj(ptr noundef %36, i32 noundef %45)
  store ptr %46, ptr %8, align 8
  %47 = load ptr, ptr %5, align 8
  %48 = load ptr, ptr %6, align 8
  %49 = load ptr, ptr %8, align 8
  %50 = call i32 @Gia_ManDupDfs2_rec(ptr noundef %47, ptr noundef %48, ptr noundef %49)
  %51 = load ptr, ptr %8, align 8
  %52 = getelementptr inbounds %struct.Gia_Obj_t_, ptr %51, i32 0, i32 1
  store i32 %50, ptr %52, align 4
  %53 = load ptr, ptr %8, align 8
  %54 = getelementptr inbounds %struct.Gia_Obj_t_, ptr %53, i32 0, i32 1
  %55 = load i32, ptr %54, align 4
  %56 = load ptr, ptr %8, align 8
  %57 = call i32 @Gia_ObjPhaseReal(ptr noundef %56)
  %58 = load ptr, ptr %7, align 8
  %59 = call i32 @Gia_ObjPhaseReal(ptr noundef %58)
  %60 = xor i32 %57, %59
  %61 = call i32 @Abc_LitNotCond(i32 noundef %55, i32 noundef %60)
  %62 = load ptr, ptr %7, align 8
  %63 = getelementptr inbounds %struct.Gia_Obj_t_, ptr %62, i32 0, i32 1
  store i32 %61, ptr %63, align 4
  store i32 %61, ptr %4, align 4
  br label %117

64:                                               ; preds = %23, %18
  %65 = load ptr, ptr %7, align 8
  %66 = call i32 @Gia_ObjIsCi(ptr noundef %65)
  %67 = icmp ne i32 %66, 0
  br i1 %67, label %68, label %73

68:                                               ; preds = %64
  %69 = load ptr, ptr %5, align 8
  %70 = call i32 @Gia_ManAppendCi(ptr noundef %69)
  %71 = load ptr, ptr %7, align 8
  %72 = getelementptr inbounds %struct.Gia_Obj_t_, ptr %71, i32 0, i32 1
  store i32 %70, ptr %72, align 4
  store i32 %70, ptr %4, align 4
  br label %117

73:                                               ; preds = %64
  %74 = load ptr, ptr %5, align 8
  %75 = load ptr, ptr %6, align 8
  %76 = load ptr, ptr %7, align 8
  %77 = call ptr @Gia_ObjFanin0(ptr noundef %76)
  %78 = call i32 @Gia_ManDupDfs2_rec(ptr noundef %74, ptr noundef %75, ptr noundef %77)
  %79 = load ptr, ptr %7, align 8
  %80 = call i32 @Gia_ObjIsCo(ptr noundef %79)
  %81 = icmp ne i32 %80, 0
  br i1 %81, label %82, label %89

82:                                               ; preds = %73
  %83 = load ptr, ptr %5, align 8
  %84 = load ptr, ptr %7, align 8
  %85 = call i32 @Gia_ObjFanin0Copy(ptr noundef %84)
  %86 = call i32 @Gia_ManAppendCo(ptr noundef %83, i32 noundef %85)
  %87 = load ptr, ptr %7, align 8
  %88 = getelementptr inbounds %struct.Gia_Obj_t_, ptr %87, i32 0, i32 1
  store i32 %86, ptr %88, align 4
  store i32 %86, ptr %4, align 4
  br label %117

89:                                               ; preds = %73
  %90 = load ptr, ptr %5, align 8
  %91 = load ptr, ptr %6, align 8
  %92 = load ptr, ptr %7, align 8
  %93 = call ptr @Gia_ObjFanin1(ptr noundef %92)
  %94 = call i32 @Gia_ManDupDfs2_rec(ptr noundef %90, ptr noundef %91, ptr noundef %93)
  %95 = load ptr, ptr %5, align 8
  %96 = getelementptr inbounds %struct.Gia_Man_t_, ptr %95, i32 0, i32 14
  %97 = call i32 @Vec_IntSize(ptr noundef %96)
  %98 = icmp ne i32 %97, 0
  br i1 %98, label %99, label %108

99:                                               ; preds = %89
  %100 = load ptr, ptr %5, align 8
  %101 = load ptr, ptr %7, align 8
  %102 = call i32 @Gia_ObjFanin0Copy(ptr noundef %101)
  %103 = load ptr, ptr %7, align 8
  %104 = call i32 @Gia_ObjFanin1Copy(ptr noundef %103)
  %105 = call i32 @Gia_ManHashAnd(ptr noundef %100, i32 noundef %102, i32 noundef %104)
  %106 = load ptr, ptr %7, align 8
  %107 = getelementptr inbounds %struct.Gia_Obj_t_, ptr %106, i32 0, i32 1
  store i32 %105, ptr %107, align 4
  store i32 %105, ptr %4, align 4
  br label %117

108:                                              ; preds = %89
  %109 = load ptr, ptr %5, align 8
  %110 = load ptr, ptr %7, align 8
  %111 = call i32 @Gia_ObjFanin0Copy(ptr noundef %110)
  %112 = load ptr, ptr %7, align 8
  %113 = call i32 @Gia_ObjFanin1Copy(ptr noundef %112)
  %114 = call i32 @Gia_ManAppendAnd(ptr noundef %109, i32 noundef %111, i32 noundef %113)
  %115 = load ptr, ptr %7, align 8
  %116 = getelementptr inbounds %struct.Gia_Obj_t_, ptr %115, i32 0, i32 1
  store i32 %114, ptr %116, align 4
  store i32 %114, ptr %4, align 4
  br label %117

117:                                              ; preds = %108, %99, %82, %68, %35, %14
  %118 = load i32, ptr %4, align 4
  ret i32 %118
}