; Function Attrs: nounwind uwtable
define i32 @Gia_ManDupDfs2_rec(ptr noundef %0, ptr noundef %1, ptr noundef %2) local_unnamed_addr #1 {
  %4 = getelementptr inbounds nuw i8, ptr %2, i64 8
  %5 = load i32, ptr %4, align 4
  %.not = icmp eq i32 %5, -1
  br i1 %.not, label %6, label %common.ret

6:                                                ; preds = %3
  %7 = getelementptr inbounds nuw i8, ptr %1, i64 184
  %8 = load ptr, ptr %7, align 8
  %.not41 = icmp eq ptr %8, null
  br i1 %.not41, label %40, label %9

9:                                                ; preds = %6
  %10 = getelementptr i8, ptr %1, i64 32
  %.val48 = load ptr, ptr %10, align 8
  %11 = ptrtoint ptr %2 to i64
  %12 = ptrtoint ptr %.val48 to i64
  %13 = sub i64 %11, %12
  %14 = sdiv exact i64 %13, 12
  %sext = shl i64 %14, 32
  %15 = ashr exact i64 %sext, 30
  %16 = getelementptr inbounds i8, ptr %8, i64 %15
  %17 = load i32, ptr %16, align 4
  %.not42 = icmp eq i32 %17, -1
  br i1 %.not42, label %40, label %18

common.ret.sink.split:                            ; preds = %18, %88, %86, %52, %42
  %.sink = phi i32 [ %43, %42 ], [ %60, %52 ], [ %87, %86 ], [ %89, %88 ], [ %39, %18 ]
  store i32 %.sink, ptr %4, align 4
  br label %common.ret

common.ret:                                       ; preds = %common.ret.sink.split, %3
  %common.ret.op = phi i32 [ %5, %3 ], [ %.sink, %common.ret.sink.split ]
  ret i32 %common.ret.op

18:                                               ; preds = %9
  %19 = sext i32 %17 to i64
  %20 = getelementptr inbounds %struct.Gia_Obj_t_, ptr %.val48, i64 %19
  %21 = tail call i32 @Gia_ManDupDfs2_rec(ptr noundef %0, ptr noundef nonnull %1, ptr noundef %20)
  %22 = getelementptr inbounds nuw i8, ptr %20, i64 8
  store i32 %21, ptr %22, align 4
  %23 = ptrtoint ptr %20 to i64
  %24 = and i64 %23, -2
  %25 = inttoptr i64 %24 to ptr
  %26 = load i64, ptr %25, align 4
  %27 = lshr i64 %26, 63
  %28 = trunc nuw nsw i64 %27 to i32
  %29 = and i64 %11, -2
  %30 = inttoptr i64 %29 to ptr
  %31 = load i64, ptr %30, align 4
  %32 = lshr i64 %31, 63
  %33 = trunc nuw nsw i64 %32 to i32
  %34 = xor i64 %23, %11
  %35 = trunc i64 %34 to i32
  %36 = and i32 %35, 1
  %37 = xor i32 %36, %28
  %38 = xor i32 %37, %33
  %39 = xor i32 %38, %21
  br label %common.ret.sink.split

40:                                               ; preds = %9, %6
  %.val49 = load i64, ptr %2, align 4
  %41 = and i64 %.val49, 2684354559
  %narrow.i.not = icmp eq i64 %41, 2684354559
  br i1 %narrow.i.not, label %42, label %44

42:                                               ; preds = %40
  %43 = tail call fastcc i32 @Gia_ManAppendCi(ptr noundef %0)
  br label %common.ret.sink.split

44:                                               ; preds = %40
  %45 = and i64 %.val49, 536870911
  %46 = sub nsw i64 0, %45
  %47 = getelementptr inbounds %struct.Gia_Obj_t_, ptr %2, i64 %46
  %48 = tail call i32 @Gia_ManDupDfs2_rec(ptr noundef %0, ptr noundef nonnull %1, ptr noundef nonnull %47)
  %.val50 = load i64, ptr %2, align 4
  %49 = and i64 %.val50, 2147483648
  %.not.i = icmp eq i64 %49, 0
  %50 = and i64 %.val50, 536870911
  %51 = icmp eq i64 %50, 536870911
  %narrow.i51.not = or i1 %.not.i, %51
  br i1 %narrow.i51.not, label %61, label %52

52:                                               ; preds = %44
  %53 = sub nsw i64 0, %50
  %54 = getelementptr inbounds %struct.Gia_Obj_t_, ptr %2, i64 %53, i32 1
  %55 = load i32, ptr %54, align 4
  %56 = trunc i64 %.val50 to i32
  %57 = lshr i32 %56, 29
  %58 = and i32 %57, 1
  %59 = xor i32 %55, %58
  %60 = tail call fastcc i32 @Gia_ManAppendCo(ptr noundef %0, i32 noundef %59)
  br label %common.ret.sink.split

61:                                               ; preds = %44
  %62 = lshr i64 %.val50, 32
  %63 = and i64 %62, 536870911
  %64 = sub nsw i64 0, %63
  %65 = getelementptr inbounds %struct.Gia_Obj_t_, ptr %2, i64 %64
  %66 = tail call i32 @Gia_ManDupDfs2_rec(ptr noundef %0, ptr noundef nonnull %1, ptr noundef nonnull %65)
  %67 = getelementptr i8, ptr %0, i64 100
  %.val = load i32, ptr %67, align 4
  %.not45 = icmp eq i32 %.val, 0
  %68 = load i64, ptr %2, align 4
  %69 = and i64 %68, 536870911
  %70 = sub nsw i64 0, %69
  %71 = getelementptr inbounds %struct.Gia_Obj_t_, ptr %2, i64 %70, i32 1
  %72 = load i32, ptr %71, align 4
  %73 = trunc i64 %68 to i32
  %74 = lshr i32 %73, 29
  %75 = and i32 %74, 1
  %76 = xor i32 %75, %72
  %77 = lshr i64 %68, 32
  %78 = and i64 %77, 536870911
  %79 = sub nsw i64 0, %78
  %80 = getelementptr inbounds %struct.Gia_Obj_t_, ptr %2, i64 %79, i32 1
  %81 = load i32, ptr %80, align 4
  %82 = lshr i64 %68, 61
  %83 = trunc nuw nsw i64 %82 to i32
  %84 = and i32 %83, 1
  %85 = xor i32 %84, %81
  br i1 %.not45, label %88, label %86

86:                                               ; preds = %61
  %87 = tail call i32 @Gia_ManHashAnd(ptr noundef nonnull %0, i32 noundef %76, i32 noundef %85) #29
  br label %common.ret.sink.split

88:                                               ; preds = %61
  %89 = tail call fastcc i32 @Gia_ManAppendAnd(ptr noundef nonnull %0, i32 noundef %76, i32 noundef %85)
  br label %common.ret.sink.split
}